; Function Attrs: mustprogress nofree norecurse nosync nounwind willreturn memory(read, inaccessiblemem: none) uwtable
define ptr @readLiveSignal_k(ptr noundef readonly captures(none) %0, i32 noundef %1) local_unnamed_addr #0 {
  %3 = getelementptr i8, ptr %0, i64 24
  %.val = load ptr, ptr %3, align 8, !tbaa !3
  %4 = getelementptr i8, ptr %.val, i64 8
  %.val.val = load ptr, ptr %4, align 8, !tbaa !21
  %5 = sext i32 %1 to i64
  %6 = getelementptr inbounds ptr, ptr %.val.val, i64 %5
  %7 = load ptr, ptr %6, align 8, !tbaa !23
  %8 = getelementptr i8, ptr %7, i64 8
  %.val35 = load ptr, ptr %8, align 8, !tbaa !24
  ret ptr %.val35
}